target datalayout = "e-m:e-p270:32:32-p271:32:32-p272:64:64-i64:64-i128:128-f80:128-n8:16:32:64-S128"
target triple = "x86_64-pc-linux-gnu"

%struct.Parser = type { ptr, ptr, i32, i32, i32, ptr, ptr, ptr, i32, i32, ptr, i32, ptr, i32, i32, i32, i32, i32, %struct.growable_comment_array, ptr, i32, i32, i32 }
%struct.growable_comment_array = type { ptr, i64, i64 }
%struct.tok_state = type { ptr, ptr, ptr, i32, ptr, ptr, ptr, ptr, i32, ptr, i32, i32, [100 x i32], i32, i32, ptr, ptr, i32, i32, i32, i32, i32, [200 x i8], [200 x i32], [200 x i32], ptr, [100 x i32], i32, i32, ptr, i32, ptr, ptr, ptr, ptr, ptr, ptr, ptr, ptr, i32, i32, ptr, i32, [150 x %struct._tokenizer_mode], i32, i32, i32, i32 }
%struct._tokenizer_mode = type { i32, i32, i32, i8, i32, i32, ptr, ptr, i32, i64, i64, i64, i64, ptr, i32, i32 }
%struct.__va_list_tag = type { i32, i32, ptr, ptr }
%struct.Token = type { i32, ptr, i32, i32, i32, i32, i32, ptr, ptr }

; Function Attrs: nounwind uwtable
define hidden ptr @_PyPegen_raise_error(ptr noundef %0, ptr noundef %1, i32 noundef %2, ptr noundef %3, ...) #0 {
  %5 = alloca ptr, align 8
  %6 = alloca ptr, align 8
  %7 = alloca ptr, align 8
  %8 = alloca i32, align 4
  %9 = alloca ptr, align 8
  %10 = alloca [1 x %struct.__va_list_tag], align 16
  %11 = alloca ptr, align 8
  %12 = alloca i64, align 8
  %13 = alloca i64, align 8
  %14 = alloca ptr, align 8
  %15 = alloca [1 x %struct.__va_list_tag], align 16
  store ptr %0, ptr %6, align 8, !tbaa !10
  store ptr %1, ptr %7, align 8, !tbaa !4
  store i32 %2, ptr %8, align 4, !tbaa !31
  store ptr %3, ptr %9, align 8, !tbaa !11
  %16 = load ptr, ptr %6, align 8, !tbaa !10
  %17 = getelementptr inbounds nuw %struct.Parser, ptr %16, i32 0, i32 15
  %18 = load i32, ptr %17, align 8, !tbaa !15
  %19 = icmp ne i32 %18, 0
  br i1 %19, label %20, label %24

20:                                               ; preds = %4
  %21 = call ptr @PyErr_Occurred()
  %22 = icmp ne ptr %21, null
  br i1 %22, label %23, label %24

23:                                               ; preds = %20
  store ptr null, ptr %5, align 8
  br label %171

24:                                               ; preds = %20, %4
  %25 = load ptr, ptr %6, align 8, !tbaa !10
  %26 = getelementptr inbounds nuw %struct.Parser, ptr %25, i32 0, i32 3
  %27 = load i32, ptr %26, align 4, !tbaa !32
  %28 = icmp eq i32 %27, 0
  br i1 %28, label %29, label %37

29:                                               ; preds = %24
  call void @llvm.lifetime.start.p0(i64 24, ptr %10) #7
  %30 = getelementptr inbounds [1 x %struct.__va_list_tag], ptr %10, i64 0, i64 0
  call void @llvm.va_start.p0(ptr %30)
  %31 = load ptr, ptr %6, align 8, !tbaa !10
  %32 = load ptr, ptr %7, align 8, !tbaa !4
  %33 = load ptr, ptr %9, align 8, !tbaa !11
  %34 = getelementptr inbounds [1 x %struct.__va_list_tag], ptr %10, i64 0, i64 0
  %35 = call ptr @_PyPegen_raise_error_known_location(ptr noundef %31, ptr noundef %32, i64 noundef 0, i64 noundef 0, i64 noundef 0, i64 noundef -1, ptr noundef %33, ptr noundef %34)
  %36 = getelementptr inbounds [1 x %struct.__va_list_tag], ptr %10, i64 0, i64 0
  call void @llvm.va_end.p0(ptr %36)
  store ptr null, ptr %5, align 8
  call void @llvm.lifetime.end.p0(i64 24, ptr %10) #7
  br label %171

37:                                               ; preds = %24
  %38 = load i32, ptr %8, align 4, !tbaa !31
  %39 = icmp ne i32 %38, 0
  br i1 %39, label %40, label %55

40:                                               ; preds = %37
  %41 = load ptr, ptr %6, align 8, !tbaa !10
  %42 = getelementptr inbounds nuw %struct.Parser, ptr %41, i32 0, i32 2
  %43 = load i32, ptr %42, align 8, !tbaa !33
  %44 = load ptr, ptr %6, align 8, !tbaa !10
  %45 = getelementptr inbounds nuw %struct.Parser, ptr %44, i32 0, i32 3
  %46 = load i32, ptr %45, align 4, !tbaa !32
  %47 = icmp eq i32 %43, %46
  br i1 %47, label %48, label %55

48:                                               ; preds = %40
  %49 = load ptr, ptr %6, align 8, !tbaa !10
  %50 = call i32 @_PyPegen_fill_token(ptr noundef %49)
  %51 = icmp slt i32 %50, 0
  br i1 %51, label %52, label %55

52:                                               ; preds = %48
  %53 = load ptr, ptr %6, align 8, !tbaa !10
  %54 = getelementptr inbounds nuw %struct.Parser, ptr %53, i32 0, i32 15
  store i32 1, ptr %54, align 8, !tbaa !15
  store ptr null, ptr %5, align 8
  br label %171

55:                                               ; preds = %48, %40, %37
  call void @llvm.lifetime.start.p0(i64 8, ptr %11) #7
  %56 = load ptr, ptr %6, align 8, !tbaa !10
  %57 = getelementptr inbounds nuw %struct.Parser, ptr %56, i32 0, i32 19
  %58 = load ptr, ptr %57, align 8, !tbaa !34
  %59 = icmp ne ptr %58, null
  br i1 %59, label %60, label %64

60:                                               ; preds = %55
  %61 = load ptr, ptr %6, align 8, !tbaa !10
  %62 = getelementptr inbounds nuw %struct.Parser, ptr %61, i32 0, i32 19
  %63 = load ptr, ptr %62, align 8, !tbaa !34
  br label %84

64:                                               ; preds = %55
  %65 = load ptr, ptr %6, align 8, !tbaa !10
  %66 = getelementptr inbounds nuw %struct.Parser, ptr %65, i32 0, i32 1
  %67 = load ptr, ptr %66, align 8, !tbaa !35
  %68 = load i32, ptr %8, align 4, !tbaa !31
  %69 = icmp ne i32 %68, 0
  br i1 %69, label %70, label %74

70:                                               ; preds = %64
  %71 = load ptr, ptr %6, align 8, !tbaa !10
  %72 = getelementptr inbounds nuw %struct.Parser, ptr %71, i32 0, i32 2
  %73 = load i32, ptr %72, align 8, !tbaa !33
  br label %79

74:                                               ; preds = %64
  %75 = load ptr, ptr %6, align 8, !tbaa !10
  %76 = getelementptr inbounds nuw %struct.Parser, ptr %75, i32 0, i32 3
  %77 = load i32, ptr %76, align 4, !tbaa !32
  %78 = sub i32 %77, 1
  br label %79

79:                                               ; preds = %74, %70
  %80 = phi i32 [ %73, %70 ], [ %78, %74 ]
  %81 = sext i32 %80 to i64
  %82 = getelementptr ptr, ptr %67, i64 %81
  %83 = load ptr, ptr %82, align 8, !tbaa !10
  br label %84

84:                                               ; preds = %79, %60
  %85 = phi ptr [ %63, %60 ], [ %83, %79 ]
  store ptr %85, ptr %11, align 8, !tbaa !10
  call void @llvm.lifetime.start.p0(i64 8, ptr %12) #7
  call void @llvm.lifetime.start.p0(i64 8, ptr %13) #7
  store i64 -1, ptr %13, align 8, !tbaa !13
  %86 = load ptr, ptr %11, align 8, !tbaa !10
  %87 = getelementptr inbounds nuw %struct.Token, ptr %86, i32 0, i32 4
  %88 = load i32, ptr %87, align 8, !tbaa !36
  %89 = icmp eq i32 %88, -1
  br i1 %89, label %90, label %136

90:                                               ; preds = %84
  %91 = load ptr, ptr %6, align 8, !tbaa !10
  %92 = getelementptr inbounds nuw %struct.Parser, ptr %91, i32 0, i32 0
  %93 = load ptr, ptr %92, align 8, !tbaa !23
  %94 = getelementptr inbounds nuw %struct.tok_state, ptr %93, i32 0, i32 1
  %95 = load ptr, ptr %94, align 8, !tbaa !28
  %96 = load ptr, ptr %6, align 8, !tbaa !10
  %97 = getelementptr inbounds nuw %struct.Parser, ptr %96, i32 0, i32 0
  %98 = load ptr, ptr %97, align 8, !tbaa !23
  %99 = getelementptr inbounds nuw %struct.tok_state, ptr %98, i32 0, i32 0
  %100 = load ptr, ptr %99, align 8, !tbaa !29
  %101 = icmp eq ptr %95, %100
  br i1 %101, label %102, label %103

102:                                              ; preds = %90
  store i64 0, ptr %12, align 8, !tbaa !13
  br label %135

103:                                              ; preds = %90
  call void @llvm.lifetime.start.p0(i64 8, ptr %14) #7
  %104 = load ptr, ptr %6, align 8, !tbaa !10
  %105 = getelementptr inbounds nuw %struct.Parser, ptr %104, i32 0, i32 0
  %106 = load ptr, ptr %105, align 8, !tbaa !23
  %107 = getelementptr inbounds nuw %struct.tok_state, ptr %106, i32 0, i32 0
  %108 = load ptr, ptr %107, align 8, !tbaa !29
  %109 = icmp ne ptr %108, null
  br i1 %109, label %110, label %116

110:                                              ; preds = %103
  %111 = load ptr, ptr %6, align 8, !tbaa !10
  %112 = getelementptr inbounds nuw %struct.Parser, ptr %111, i32 0, i32 0
  %113 = load ptr, ptr %112, align 8, !tbaa !23
  %114 = getelementptr inbounds nuw %struct.tok_state, ptr %113, i32 0, i32 31
  %115 = load ptr, ptr %114, align 8, !tbaa !39
  br label %122

116:                                              ; preds = %103
  %117 = load ptr, ptr %6, align 8, !tbaa !10
  %118 = getelementptr inbounds nuw %struct.Parser, ptr %117, i32 0, i32 0
  %119 = load ptr, ptr %118, align 8, !tbaa !23
  %120 = getelementptr inbounds nuw %struct.tok_state, ptr %119, i32 0, i32 0
  %121 = load ptr, ptr %120, align 8, !tbaa !29
  br label %122

122:                                              ; preds = %116, %110
  %123 = phi ptr [ %115, %110 ], [ %121, %116 ]
  store ptr %123, ptr %14, align 8, !tbaa !11
  %124 = load ptr, ptr %6, align 8, !tbaa !10
  %125 = getelementptr inbounds nuw %struct.Parser, ptr %124, i32 0, i32 0
  %126 = load ptr, ptr %125, align 8, !tbaa !23
  %127 = getelementptr inbounds nuw %struct.tok_state, ptr %126, i32 0, i32 1
  %128 = load ptr, ptr %127, align 8, !tbaa !28
  %129 = load ptr, ptr %14, align 8, !tbaa !11
  %130 = ptrtoint ptr %128 to i64
  %131 = ptrtoint ptr %129 to i64
  %132 = sub i64 %130, %131
  %133 = trunc i64 %132 to i32
  %134 = sext i32 %133 to i64
  store i64 %134, ptr %12, align 8, !tbaa !13
  call void @llvm.lifetime.end.p0(i64 8, ptr %14) #7
  br label %135

135:                                              ; preds = %122, %102
  br label %142

136:                                              ; preds = %84
  %137 = load ptr, ptr %11, align 8, !tbaa !10
  %138 = getelementptr inbounds nuw %struct.Token, ptr %137, i32 0, i32 4
  %139 = load i32, ptr %138, align 8, !tbaa !36
  %140 = add i32 %139, 1
  %141 = sext i32 %140 to i64
  store i64 %141, ptr %12, align 8, !tbaa !13
  br label %142

142:                                              ; preds = %136, %135
  %143 = load ptr, ptr %11, align 8, !tbaa !10
  %144 = getelementptr inbounds nuw %struct.Token, ptr %143, i32 0, i32 6
  %145 = load i32, ptr %144, align 8, !tbaa !40
  %146 = icmp ne i32 %145, -1
  br i1 %146, label %147, label %153

147:                                              ; preds = %142
  %148 = load ptr, ptr %11, align 8, !tbaa !10
  %149 = getelementptr inbounds nuw %struct.Token, ptr %148, i32 0, i32 6
  %150 = load i32, ptr %149, align 8, !tbaa !40
  %151 = add i32 %150, 1
  %152 = sext i32 %151 to i64
  store i64 %152, ptr %13, align 8, !tbaa !13
  br label %153

153:                                              ; preds = %147, %142
  call void @llvm.lifetime.start.p0(i64 24, ptr %15) #7
  %154 = getelementptr inbounds [1 x %struct.__va_list_tag], ptr %15, i64 0, i64 0
  call void @llvm.va_start.p0(ptr %154)
  %155 = load ptr, ptr %6, align 8, !tbaa !10
  %156 = load ptr, ptr %7, align 8, !tbaa !4
  %157 = load ptr, ptr %11, align 8, !tbaa !10
  %158 = getelementptr inbounds nuw %struct.Token, ptr %157, i32 0, i32 3
  %159 = load i32, ptr %158, align 4, !tbaa !41
  %160 = sext i32 %159 to i64
  %161 = load i64, ptr %12, align 8, !tbaa !13
  %162 = load ptr, ptr %11, align 8, !tbaa !10
  %163 = getelementptr inbounds nuw %struct.Token, ptr %162, i32 0, i32 5
  %164 = load i32, ptr %163, align 4, !tbaa !42
  %165 = sext i32 %164 to i64
  %166 = load i64, ptr %13, align 8, !tbaa !13
  %167 = load ptr, ptr %9, align 8, !tbaa !11
  %168 = getelementptr inbounds [1 x %struct.__va_list_tag], ptr %15, i64 0, i64 0
  %169 = call ptr @_PyPegen_raise_error_known_location(ptr noundef %155, ptr noundef %156, i64 noundef %160, i64 noundef %161, i64 noundef %165, i64 noundef %166, ptr noundef %167, ptr noundef %168)
  %170 = getelementptr inbounds [1 x %struct.__va_list_tag], ptr %15, i64 0, i64 0
  call void @llvm.va_end.p0(ptr %170)
  store ptr null, ptr %5, align 8
  call void @llvm.lifetime.end.p0(i64 24, ptr %15) #7
  call void @llvm.lifetime.end.p0(i64 8, ptr %13) #7
  call void @llvm.lifetime.end.p0(i64 8, ptr %12) #7
  call void @llvm.lifetime.end.p0(i64 8, ptr %11) #7
  br label %171

171:                                              ; preds = %153, %52, %29, %23
  %172 = load ptr, ptr %5, align 8
  ret ptr %172
}