; Function Attrs: nounwind uwtable
define hidden noalias noundef ptr @_PyPegen_raise_error(ptr noundef %0, ptr noundef %1, i32 noundef %2, ptr noundef %3, ...) local_unnamed_addr #0 {
  %5 = alloca [1 x %struct.__va_list_tag], align 16
  %6 = alloca [1 x %struct.__va_list_tag], align 16
  %7 = getelementptr inbounds nuw i8, ptr %0, i64 96
  %8 = load i32, ptr %7, align 8, !tbaa !10
  %.not = icmp eq i32 %8, 0
  br i1 %.not, label %11, label %9

9:                                                ; preds = %4
  %10 = tail call ptr @PyErr_Occurred() #7
  %.not40 = icmp eq ptr %10, null
  br i1 %.not40, label %11, label %74

11:                                               ; preds = %9, %4
  %12 = getelementptr inbounds nuw i8, ptr %0, i64 20
  %13 = load i32, ptr %12, align 4, !tbaa !29
  %14 = icmp eq i32 %13, 0
  br i1 %14, label %15, label %17

15:                                               ; preds = %11
  call void @llvm.lifetime.start.p0(i64 24, ptr nonnull %5) #7
  call void @llvm.va_start.p0(ptr nonnull %5)
  %16 = call ptr @_PyPegen_raise_error_known_location(ptr noundef nonnull %0, ptr noundef %1, i64 noundef 0, i64 noundef 0, i64 noundef 0, i64 noundef -1, ptr noundef %3, ptr noundef nonnull %5)
  call void @llvm.va_end.p0(ptr nonnull %5)
  call void @llvm.lifetime.end.p0(i64 24, ptr nonnull %5) #7
  br label %74

17:                                               ; preds = %11
  %.not41 = icmp eq i32 %2, 0
  br i1 %.not41, label %.thread, label %18

18:                                               ; preds = %17
  %19 = getelementptr inbounds nuw i8, ptr %0, i64 16
  %20 = load i32, ptr %19, align 8, !tbaa !30
  %21 = icmp eq i32 %20, %13
  br i1 %21, label %22, label %26

22:                                               ; preds = %18
  %23 = tail call i32 @_PyPegen_fill_token(ptr noundef nonnull %0) #7
  %24 = icmp slt i32 %23, 0
  br i1 %24, label %25, label %26

25:                                               ; preds = %22
  store i32 1, ptr %7, align 8, !tbaa !10
  br label %74

26:                                               ; preds = %22, %18
  %27 = getelementptr inbounds nuw i8, ptr %0, i64 136
  %28 = load ptr, ptr %27, align 8, !tbaa !31
  %.not42 = icmp eq ptr %28, null
  br i1 %.not42, label %32, label %40

.thread:                                          ; preds = %17
  %29 = getelementptr inbounds nuw i8, ptr %0, i64 136
  %30 = load ptr, ptr %29, align 8, !tbaa !31
  %.not4245 = icmp eq ptr %30, null
  br i1 %.not4245, label %.thread46, label %40

.thread46:                                        ; preds = %.thread
  %31 = add i32 %13, -1
  br label %34

32:                                               ; preds = %26
  %33 = load i32, ptr %19, align 8, !tbaa !30
  br label %34

34:                                               ; preds = %.thread46, %32
  %35 = phi i32 [ %33, %32 ], [ %31, %.thread46 ]
  %.in = getelementptr inbounds nuw i8, ptr %0, i64 8
  %36 = load ptr, ptr %.in, align 8, !tbaa !32
  %37 = sext i32 %35 to i64
  %38 = getelementptr ptr, ptr %36, i64 %37
  %39 = load ptr, ptr %38, align 8, !tbaa !33
  br label %40

40:                                               ; preds = %.thread, %26, %34
  %41 = phi ptr [ %39, %34 ], [ %28, %26 ], [ %30, %.thread ]
  %42 = getelementptr inbounds nuw i8, ptr %41, i64 24
  %43 = load i32, ptr %42, align 8, !tbaa !34
  %44 = icmp eq i32 %43, -1
  br i1 %44, label %45, label %61

45:                                               ; preds = %40
  %46 = load ptr, ptr %0, align 8, !tbaa !19
  %47 = getelementptr inbounds nuw i8, ptr %46, i64 8
  %48 = load ptr, ptr %47, align 8, !tbaa !26
  %49 = load ptr, ptr %46, align 8, !tbaa !27
  %50 = icmp eq ptr %48, %49
  br i1 %50, label %64, label %51

51:                                               ; preds = %45
  %.not43 = icmp eq ptr %49, null
  br i1 %.not43, label %56, label %52

52:                                               ; preds = %51
  %53 = getelementptr inbounds nuw i8, ptr %46, i64 2768
  %54 = load ptr, ptr %53, align 8, !tbaa !37
  %55 = ptrtoint ptr %54 to i64
  br label %56

56:                                               ; preds = %51, %52
  %57 = phi i64 [ %55, %52 ], [ 0, %51 ]
  %58 = ptrtoint ptr %48 to i64
  %59 = sub i64 %58, %57
  %sext = shl i64 %59, 32
  %60 = ashr exact i64 %sext, 32
  br label %64

61:                                               ; preds = %40
  %62 = add nuw i32 %43, 1
  %63 = sext i32 %62 to i64
  br label %64

64:                                               ; preds = %45, %56, %61
  %.035 = phi i64 [ %60, %56 ], [ %63, %61 ], [ 0, %45 ]
  %65 = getelementptr inbounds nuw i8, ptr %41, i64 32
  %66 = load i32, ptr %65, align 8, !tbaa !38
  %narrow = tail call i32 @llvm.uadd.sat.i32(i32 %66, i32 1)
  %.034 = sext i32 %narrow to i64
  call void @llvm.lifetime.start.p0(i64 24, ptr nonnull %6) #7
  call void @llvm.va_start.p0(ptr nonnull %6)
  %67 = getelementptr inbounds nuw i8, ptr %41, i64 20
  %68 = load i32, ptr %67, align 4, !tbaa !39
  %69 = sext i32 %68 to i64
  %70 = getelementptr inbounds nuw i8, ptr %41, i64 28
  %71 = load i32, ptr %70, align 4, !tbaa !40
  %72 = sext i32 %71 to i64
  %73 = call ptr @_PyPegen_raise_error_known_location(ptr noundef nonnull %0, ptr noundef %1, i64 noundef %69, i64 noundef %.035, i64 noundef %72, i64 noundef %.034, ptr noundef %3, ptr noundef nonnull %6)
  call void @llvm.va_end.p0(ptr nonnull %6)
  call void @llvm.lifetime.end.p0(i64 24, ptr nonnull %6) #7
  br label %74

74:                                               ; preds = %9, %64, %25, %15
  ret ptr null
}